; ModuleID = 'bench/linux/original/nls_cp437.ll'
source_filename = "bench/linux/original/nls_cp437.ll"
target datalayout = "e-m:e-p270:32:32-p271:32:32-p272:64:64-i64:64-i128:128-f80:128-n8:16:32:64-S128"
target triple = "x86_64-unknown-linux-gnu"

module asm ".section\09\22.initcall6.init\22, \22a\22\09\09"
module asm "__initcall__kmod_nls_cp437__303_384_init_nls_cp4376:\09\09\09"
module asm ".long\09init_nls_cp437 - .\09"
module asm ".previous\09\09\09\09\09"

%struct.nls_table = type { ptr, ptr, ptr, ptr, ptr, ptr, ptr, ptr }

@table = internal global %struct.nls_table { ptr @.str, ptr null, ptr @uni2char, ptr @char2uni, ptr @charset2lower, ptr @charset2upper, ptr null, ptr null }, align 8
@__UNIQUE_ID___addressable_init_nls_cp437304 = internal global ptr @init_nls_cp437, section ".discard.addressable", align 8
@__exitcall_exit_nls_cp437 = internal global ptr @exit_nls_cp437, section ".exitcall.exit", align 8
@__UNIQUE_ID_file305 = internal constant [32 x i8] c"nls_cp437.file=fs/nls/nls_cp437\00", section ".modinfo", align 1
@__UNIQUE_ID_license306 = internal constant [31 x i8] c"nls_cp437.license=Dual BSD/GPL\00", section ".modinfo", align 1
@.str = private unnamed_addr constant [6 x i8] c"cp437\00", align 1
@charset2lower = internal constant [256 x i8] c"\00\01\02\03\04\05\06\07\08\09\0A\0B\0C\0D\0E\0F\10\11\12\13\14\15\16\17\18\19\1A\1B\1C\1D\1E\1F !\22#$%&'()*+,-./0123456789:;<=>?@abcdefghijklmnopqrstuvwxyz[\\]^_`abcdefghijklmnopqrstuvwxyz{|}~\7F\87\81\82\83\84\85\86\87\88\89\8A\8B\8C\8D\84\86\82\91\91\93\94\95\96\97\98\94\81\9B\9C\9D\9E\9F\A0\A1\A2\A3\A4\A4\A6\A7\A8\A9\AA\AB\AC\AD\AE\AF\B0\B1\B2\B3\B4\B5\B6\B7\B8\B9\BA\BB\BC\BD\BE\BF\C0\C1\C2\C3\C4\C5\C6\C7\C8\C9\CA\CB\CC\CD\CE\CF\D0\D1\D2\D3\D4\D5\D6\D7\D8\D9\DA\DB\DC\DD\DE\DF\E0\E1\00\E3\E5\E5\E6\E7\ED\00\00\EB\EC\ED\EE\EF\F0\F1\F2\F3\F4\F5\F6\F7\F8\F9\FA\FB\FC\FD\FE\FF", align 16
@charset2upper = internal constant [256 x i8] c"\00\01\02\03\04\05\06\07\08\09\0A\0B\0C\0D\0E\0F\10\11\12\13\14\15\16\17\18\19\1A\1B\1C\1D\1E\1F !\22#$%&'()*+,-./0123456789:;<=>?@ABCDEFGHIJKLMNOPQRSTUVWXYZ[\\]^_`ABCDEFGHIJKLMNOPQRSTUVWXYZ{|}~\7F\80\9A\90\00\8E\00\8F\80\00\00\00\00\00\00\8E\8F\90\92\92\00\99\00\00\00\00\99\9A\9B\9C\9D\9E\00\00\00\00\00\A5\A5\A6\A7\A8\A9\AA\AB\AC\AD\AE\AF\B0\B1\B2\B3\B4\B5\B6\B7\B8\B9\BA\BB\BC\BD\BE\BF\C0\C1\C2\C3\C4\C5\C6\C7\C8\C9\CA\CB\CC\CD\CE\CF\D0\D1\D2\D3\D4\D5\D6\D7\D8\D9\DA\DB\DC\DD\DE\DF\00\E1\E2\00\E4\E4\00\00\E8\E9\EA\00\EC\E8\00\EF\F0\F1\F2\F3\F4\F5\F6\F7\F8\F9\FA\FB\FC\FD\FE\FF", align 16
@page00 = internal constant [256 x i8] c"\00\01\02\03\04\05\06\07\08\09\0A\0B\0C\0D\0E\0F\10\11\12\13\14\15\16\17\18\19\1A\1B\1C\1D\1E\1F !\22#$%&'()*+,-./0123456789:;<=>?@ABCDEFGHIJKLMNOPQRSTUVWXYZ[\\]^_`abcdefghijklmnopqrstuvwxyz{|}~\7F\00\00\00\00\00\00\00\00\00\00\00\00\00\00\00\00\00\00\00\00\00\00\00\00\00\00\00\00\00\00\00\00\FF\AD\9B\9C\00\9D\00\00\00\00\A6\AE\AA\00\00\00\F8\F1\FD\00\00\E6\00\FA\00\00\A7\AF\AC\AB\00\A8\00\00\00\00\8E\8F\92\80\00\90\00\00\00\00\00\00\00\A5\00\00\00\00\99\00\00\00\00\00\9A\00\00\E1\85\A0\83\00\84\86\91\87\8A\82\88\89\8D\A1\8C\8B\00\A4\95\A2\93\00\94\F6\00\97\A3\96\81\00\00\98", align 16
@page_uni2charset = internal unnamed_addr constant <{ [38 x ptr], [218 x ptr] }> <{ [38 x ptr] [ptr @page00, ptr @page01, ptr null, ptr @page03, ptr null, ptr null, ptr null, ptr null, ptr null, ptr null, ptr null, ptr null, ptr null, ptr null, ptr null, ptr null, ptr null, ptr null, ptr null, ptr null, ptr null, ptr null, ptr null, ptr null, ptr null, ptr null, ptr null, ptr null, ptr null, ptr null, ptr null, ptr null, ptr @page20, ptr null, ptr @page22, ptr @page23, ptr null, ptr @page25], [218 x ptr] zeroinitializer }>, align 16
@page01 = internal constant <{ [147 x i8], [109 x i8] }> <{ [147 x i8] c"\00\00\00\00\00\00\00\00\00\00\00\00\00\00\00\00\00\00\00\00\00\00\00\00\00\00\00\00\00\00\00\00\00\00\00\00\00\00\00\00\00\00\00\00\00\00\00\00\00\00\00\00\00\00\00\00\00\00\00\00\00\00\00\00\00\00\00\00\00\00\00\00\00\00\00\00\00\00\00\00\00\00\00\00\00\00\00\00\00\00\00\00\00\00\00\00\00\00\00\00\00\00\00\00\00\00\00\00\00\00\00\00\00\00\00\00\00\00\00\00\00\00\00\00\00\00\00\00\00\00\00\00\00\00\00\00\00\00\00\00\00\00\00\00\00\00\9F", [109 x i8] zeroinitializer }>, align 16
@page03 = internal constant <{ [199 x i8], [57 x i8] }> <{ [199 x i8] c"\00\00\00\00\00\00\00\00\00\00\00\00\00\00\00\00\00\00\00\00\00\00\00\00\00\00\00\00\00\00\00\00\00\00\00\00\00\00\00\00\00\00\00\00\00\00\00\00\00\00\00\00\00\00\00\00\00\00\00\00\00\00\00\00\00\00\00\00\00\00\00\00\00\00\00\00\00\00\00\00\00\00\00\00\00\00\00\00\00\00\00\00\00\00\00\00\00\00\00\00\00\00\00\00\00\00\00\00\00\00\00\00\00\00\00\00\00\00\00\00\00\00\00\00\00\00\00\00\00\00\00\00\00\00\00\00\00\00\00\00\00\00\00\00\00\00\00\E2\00\00\00\00\E9\00\00\00\00\00\00\00\00\00\00\E4\00\00\E8\00\00\EA\00\00\00\00\00\00\00\E0\00\00\EB\EE\00\00\00\00\00\00\00\00\00\00\E3\00\00\E5\E7\00\ED", [57 x i8] zeroinitializer }>, align 16
@page20 = internal constant <{ [168 x i8], [88 x i8] }> <{ [168 x i8] c"\00\00\00\00\00\00\00\00\00\00\00\00\00\00\00\00\00\00\00\00\00\00\00\00\00\00\00\00\00\00\00\00\00\00\00\00\00\00\00\00\00\00\00\00\00\00\00\00\00\00\00\00\00\00\00\00\00\00\00\00\00\00\00\00\00\00\00\00\00\00\00\00\00\00\00\00\00\00\00\00\00\00\00\00\00\00\00\00\00\00\00\00\00\00\00\00\00\00\00\00\00\00\00\00\00\00\00\00\00\00\00\00\00\00\00\00\00\00\00\00\00\00\00\00\00\00\00\FC\00\00\00\00\00\00\00\00\00\00\00\00\00\00\00\00\00\00\00\00\00\00\00\00\00\00\00\00\00\00\00\00\00\00\00\00\00\00\00\9E", [88 x i8] zeroinitializer }>, align 16
@page22 = internal constant <{ [102 x i8], [154 x i8] }> <{ [102 x i8] c"\00\00\00\00\00\00\00\00\00\00\00\00\00\00\00\00\00\00\00\00\00\00\00\00\00\F9\FB\00\00\00\EC\00\00\00\00\00\00\00\00\00\00\EF\00\00\00\00\00\00\00\00\00\00\00\00\00\00\00\00\00\00\00\00\00\00\00\00\00\00\00\00\00\00\F7\00\00\00\00\00\00\00\00\00\00\00\00\00\00\00\00\00\00\00\00\00\00\00\00\F0\00\00\F3\F2", [154 x i8] zeroinitializer }>, align 16
@page23 = internal constant <{ [34 x i8], [222 x i8] }> <{ [34 x i8] c"\00\00\00\00\00\00\00\00\00\00\00\00\00\00\00\00\A9\00\00\00\00\00\00\00\00\00\00\00\00\00\00\00\F4\F5", [222 x i8] zeroinitializer }>, align 16
@page25 = internal constant <{ [161 x i8], [95 x i8] }> <{ [161 x i8] c"\C4\00\B3\00\00\00\00\00\00\00\00\00\DA\00\00\00\BF\00\00\00\C0\00\00\00\D9\00\00\00\C3\00\00\00\00\00\00\00\B4\00\00\00\00\00\00\00\C2\00\00\00\00\00\00\00\C1\00\00\00\00\00\00\00\C5\00\00\00\00\00\00\00\00\00\00\00\00\00\00\00\00\00\00\00\CD\BA\D5\D6\C9\B8\B7\BB\D4\D3\C8\BE\BD\BC\C6\C7\CC\B5\B6\B9\D1\D2\CB\CF\D0\CA\D8\D7\CE\00\00\00\00\00\00\00\00\00\00\00\00\00\00\00\00\00\00\00\DF\00\00\00\DC\00\00\00\DB\00\00\00\DD\00\00\00\DE\B0\B1\B2\00\00\00\00\00\00\00\00\00\00\00\00\FE", [95 x i8] zeroinitializer }>, align 16
@charset2uni = internal unnamed_addr constant [256 x i16] [i16 0, i16 1, i16 2, i16 3, i16 4, i16 5, i16 6, i16 7, i16 8, i16 9, i16 10, i16 11, i16 12, i16 13, i16 14, i16 15, i16 16, i16 17, i16 18, i16 19, i16 20, i16 21, i16 22, i16 23, i16 24, i16 25, i16 26, i16 27, i16 28, i16 29, i16 30, i16 31, i16 32, i16 33, i16 34, i16 35, i16 36, i16 37, i16 38, i16 39, i16 40, i16 41, i16 42, i16 43, i16 44, i16 45, i16 46, i16 47, i16 48, i16 49, i16 50, i16 51, i16 52, i16 53, i16 54, i16 55, i16 56, i16 57, i16 58, i16 59, i16 60, i16 61, i16 62, i16 63, i16 64, i16 65, i16 66, i16 67, i16 68, i16 69, i16 70, i16 71, i16 72, i16 73, i16 74, i16 75, i16 76, i16 77, i16 78, i16 79, i16 80, i16 81, i16 82, i16 83, i16 84, i16 85, i16 86, i16 87, i16 88, i16 89, i16 90, i16 91, i16 92, i16 93, i16 94, i16 95, i16 96, i16 97, i16 98, i16 99, i16 100, i16 101, i16 102, i16 103, i16 104, i16 105, i16 106, i16 107, i16 108, i16 109, i16 110, i16 111, i16 112, i16 113, i16 114, i16 115, i16 116, i16 117, i16 118, i16 119, i16 120, i16 121, i16 122, i16 123, i16 124, i16 125, i16 126, i16 127, i16 199, i16 252, i16 233, i16 226, i16 228, i16 224, i16 229, i16 231, i16 234, i16 235, i16 232, i16 239, i16 238, i16 236, i16 196, i16 197, i16 201, i16 230, i16 198, i16 244, i16 246, i16 242, i16 251, i16 249, i16 255, i16 214, i16 220, i16 162, i16 163, i16 165, i16 8359, i16 402, i16 225, i16 237, i16 243, i16 250, i16 241, i16 209, i16 170, i16 186, i16 191, i16 8976, i16 172, i16 189, i16 188, i16 161, i16 171, i16 187, i16 9617, i16 9618, i16 9619, i16 9474, i16 9508, i16 9569, i16 9570, i16 9558, i16 9557, i16 9571, i16 9553, i16 9559, i16 9565, i16 9564, i16 9563, i16 9488, i16 9492, i16 9524, i16 9516, i16 9500, i16 9472, i16 9532, i16 9566, i16 9567, i16 9562, i16 9556, i16 9577, i16 9574, i16 9568, i16 9552, i16 9580, i16 9575, i16 9576, i16 9572, i16 9573, i16 9561, i16 9560, i16 9554, i16 9555, i16 9579, i16 9578, i16 9496, i16 9484, i16 9608, i16 9604, i16 9612, i16 9616, i16 9600, i16 945, i16 223, i16 915, i16 960, i16 931, i16 963, i16 181, i16 964, i16 934, i16 920, i16 937, i16 948, i16 8734, i16 966, i16 949, i16 8745, i16 8801, i16 177, i16 8805, i16 8804, i16 8992, i16 8993, i16 247, i16 8776, i16 176, i16 8729, i16 183, i16 8730, i16 8319, i16 178, i16 9632, i16 160], align 16
@llvm.compiler.used = appending global [5 x ptr] [ptr @__UNIQUE_ID___addressable_init_nls_cp437304, ptr @__UNIQUE_ID_file305, ptr @__UNIQUE_ID_license306, ptr @__exitcall_exit_nls_cp437, ptr @exit_nls_cp437], section "llvm.metadata"

; Function Attrs: cold fn_ret_thunk_extern nounwind null_pointer_is_valid optsize
define internal void @exit_nls_cp437() #0 section ".exit.text" align 16 {
  %1 = tail call i32 @unregister_nls(ptr noundef nonnull @table) #4
  ret void
}

; Function Attrs: null_pointer_is_valid
declare dso_local i32 @unregister_nls(ptr noundef) local_unnamed_addr #1

; Function Attrs: cold fn_ret_thunk_extern nounwind null_pointer_is_valid optsize
define internal i32 @init_nls_cp437() #0 section ".init.text" align 16 {
  %1 = tail call i32 @__register_nls(ptr noundef nonnull @table, ptr noundef null) #4
  ret i32 %1
}

; Function Attrs: fn_ret_thunk_extern mustprogress nofree norecurse nosync nounwind null_pointer_is_valid willreturn memory(read, argmem: readwrite, inaccessiblemem: none)
define internal noundef i32 @uni2char(i16 noundef zeroext %0, ptr nocapture noundef writeonly %1, i32 noundef %2) #2 align 16 {
  %4 = icmp slt i32 %2, 1
  br i1 %4, label %18, label %5

5:                                                ; preds = %3
  %6 = lshr i16 %0, 8
  %7 = zext nneg i16 %6 to i64
  %8 = getelementptr [256 x ptr], ptr @page_uni2charset, i64 0, i64 %7
  %9 = load ptr, ptr %8, align 8
  %10 = icmp eq ptr %9, null
  br i1 %10, label %18, label %11

11:                                               ; preds = %5
  %12 = and i16 %0, 255
  %13 = zext nneg i16 %12 to i64
  %14 = getelementptr i8, ptr %9, i64 %13
  %15 = load i8, ptr %14, align 1
  %16 = icmp eq i8 %15, 0
  br i1 %16, label %18, label %17

17:                                               ; preds = %11
  store i8 %15, ptr %1, align 1
  br label %18

18:                                               ; preds = %17, %11, %5, %3
  %19 = phi i32 [ 1, %17 ], [ -36, %3 ], [ -22, %11 ], [ -22, %5 ]
  ret i32 %19
}

; Function Attrs: fn_ret_thunk_extern mustprogress nofree norecurse nosync nounwind null_pointer_is_valid willreturn memory(argmem: readwrite)
define internal i32 @char2uni(ptr nocapture noundef readonly %0, i32 %1, ptr nocapture noundef writeonly %2) #3 align 16 {
  %4 = load i8, ptr %0, align 1
  %5 = zext i8 %4 to i64
  %6 = getelementptr [256 x i16], ptr @charset2uni, i64 0, i64 %5
  %7 = load i16, ptr %6, align 2
  store i16 %7, ptr %2, align 2
  %8 = icmp eq i8 %4, 0
  %9 = select i1 %8, i32 -22, i32 1
  ret i32 %9
}

; Function Attrs: null_pointer_is_valid
declare dso_local i32 @__register_nls(ptr noundef, ptr noundef) local_unnamed_addr #1


!llvm.module.flags = !{!0, !1, !2, !3, !4}

!0 = !{i32 1, !"wchar_size", i32 2}
!1 = !{i32 8, !"cf-protection-branch", i32 1}
!2 = !{i32 4, !"function_return_thunk_extern", i32 1}
!3 = !{i32 4, !"indirect_branch_cs_prefix", i32 1}
!4 = !{i32 4, !"SkipRaxSetup", i32 1}
